target datalayout = "e-m:e-p270:32:32-p271:32:32-p272:64:64-i64:64-i128:128-f80:128-n8:16:32:64-S128"
target triple = "x86_64-pc-linux-gnu"

%"class.cv::datasets::TRACK_vot" = type { %"class.cv::datasets::Dataset", %"class.std::vector.5", i32, i32 }
%"class.cv::datasets::Dataset" = type { ptr, %"class.std::vector", %"class.std::vector", %"class.std::vector", %"class.std::vector.0" }
%"class.std::vector" = type { %"struct.std::_Vector_base" }
%"struct.std::_Vector_base" = type { %"struct.std::_Vector_base<std::vector<cv::Ptr<cv::datasets::Object>>, std::allocator<std::vector<cv::Ptr<cv::datasets::Object>>>>::_Vector_impl" }
%"struct.std::_Vector_base<std::vector<cv::Ptr<cv::datasets::Object>>, std::allocator<std::vector<cv::Ptr<cv::datasets::Object>>>>::_Vector_impl" = type { %"struct.std::_Vector_base<std::vector<cv::Ptr<cv::datasets::Object>>, std::allocator<std::vector<cv::Ptr<cv::datasets::Object>>>>::_Vector_impl_data" }
%"struct.std::_Vector_base<std::vector<cv::Ptr<cv::datasets::Object>>, std::allocator<std::vector<cv::Ptr<cv::datasets::Object>>>>::_Vector_impl_data" = type { ptr, ptr, ptr }
%"class.std::vector.0" = type { %"struct.std::_Vector_base.1" }
%"struct.std::_Vector_base.1" = type { %"struct.std::_Vector_base<cv::Ptr<cv::datasets::Object>, std::allocator<cv::Ptr<cv::datasets::Object>>>::_Vector_impl" }
%"struct.std::_Vector_base<cv::Ptr<cv::datasets::Object>, std::allocator<cv::Ptr<cv::datasets::Object>>>::_Vector_impl" = type { %"struct.std::_Vector_base<cv::Ptr<cv::datasets::Object>, std::allocator<cv::Ptr<cv::datasets::Object>>>::_Vector_impl_data" }
%"struct.std::_Vector_base<cv::Ptr<cv::datasets::Object>, std::allocator<cv::Ptr<cv::datasets::Object>>>::_Vector_impl_data" = type { ptr, ptr, ptr }
%"class.std::vector.5" = type { %"struct.std::_Vector_base.6" }
%"struct.std::_Vector_base.6" = type { %"struct.std::_Vector_base<std::vector<cv::Ptr<cv::datasets::TRACK_votObj>>, std::allocator<std::vector<cv::Ptr<cv::datasets::TRACK_votObj>>>>::_Vector_impl" }
%"struct.std::_Vector_base<std::vector<cv::Ptr<cv::datasets::TRACK_votObj>>, std::allocator<std::vector<cv::Ptr<cv::datasets::TRACK_votObj>>>>::_Vector_impl" = type { %"struct.std::_Vector_base<std::vector<cv::Ptr<cv::datasets::TRACK_votObj>>, std::allocator<std::vector<cv::Ptr<cv::datasets::TRACK_votObj>>>>::_Vector_impl_data" }
%"struct.std::_Vector_base<std::vector<cv::Ptr<cv::datasets::TRACK_votObj>>, std::allocator<std::vector<cv::Ptr<cv::datasets::TRACK_votObj>>>>::_Vector_impl_data" = type { ptr, ptr, ptr }

; Function Attrs: mustprogress nounwind uwtable
define linkonce_odr hidden noundef i64 @_ZNKSt6vectorIS_IN2cv3PtrINS0_8datasets12TRACK_votObjEEESaIS4_EESaIS6_EE4sizeEv(ptr noundef nonnull align 8 dereferenceable(24) %0) #4 comdat align 2 {
  %2 = alloca ptr, align 8
  store ptr %0, ptr %2, align 8
  %3 = load ptr, ptr %2, align 8
  %4 = getelementptr inbounds %"struct.std::_Vector_base.6", ptr %3, i32 0, i32 0
  %5 = getelementptr inbounds %"struct.std::_Vector_base<std::vector<cv::Ptr<cv::datasets::TRACK_votObj>>, std::allocator<std::vector<cv::Ptr<cv::datasets::TRACK_votObj>>>>::_Vector_impl_data", ptr %4, i32 0, i32 1
  %6 = load ptr, ptr %5, align 8
  %7 = getelementptr inbounds %"struct.std::_Vector_base.6", ptr %3, i32 0, i32 0
  %8 = getelementptr inbounds %"struct.std::_Vector_base<std::vector<cv::Ptr<cv::datasets::TRACK_votObj>>, std::allocator<std::vector<cv::Ptr<cv::datasets::TRACK_votObj>>>>::_Vector_impl_data", ptr %7, i32 0, i32 0
  %9 = load ptr, ptr %8, align 8
  %10 = ptrtoint ptr %6 to i64
  %11 = ptrtoint ptr %9 to i64
  %12 = sub i64 %10, %11
  %13 = sdiv exact i64 %12, 24
  ret i64 %13
}

; Function Attrs: mustprogress nounwind uwtable
define hidden noundef i32 @_ZN2cv8datasets13TRACK_votImpl14getDatasetsNumEv(ptr noundef nonnull align 8 dereferenceable(136) %0) unnamed_addr #4 align 2 {
  %2 = alloca ptr, align 8
  store ptr %0, ptr %2, align 8
  %3 = load ptr, ptr %2, align 8
  %4 = getelementptr inbounds %"class.cv::datasets::TRACK_vot", ptr %3, i32 0, i32 1
  %5 = call noundef i64 @_ZNKSt6vectorIS_IN2cv3PtrINS0_8datasets12TRACK_votObjEEESaIS4_EESaIS6_EE4sizeEv(ptr noundef nonnull align 8 dereferenceable(24) %4) #11
  %6 = trunc i64 %5 to i32
  ret i32 %6
}