; Function Attrs: mustprogress nofree norecurse nosync nounwind willreturn memory(argmem: read) uwtable
define hidden noundef i32 @_ZN2cv8datasets13TRACK_votImpl14getDatasetsNumEv(ptr nocapture noundef nonnull readonly align 8 dereferenceable(136) %0) unnamed_addr #7 align 2 {
  %2 = getelementptr inbounds i8, ptr %0, i64 104
  %3 = getelementptr inbounds i8, ptr %0, i64 112
  %4 = load ptr, ptr %3, align 8
  %5 = load ptr, ptr %2, align 8
  %6 = ptrtoint ptr %4 to i64
  %7 = ptrtoint ptr %5 to i64
  %8 = sub i64 %6, %7
  %9 = sdiv exact i64 %8, 24
  %10 = trunc i64 %9 to i32
  ret i32 %10
}